; ModuleID = '50/2617.c'
source_filename = "50/2617.c"
target datalayout = "e-m:e-p270:32:32-p271:32:32-p272:64:64-i64:64-f80:128-n8:16:32:64-S128"
target triple = "x86_64-pc-linux-gnu"

@__const.day.a = private unnamed_addr constant [11 x i32] [i32 31, i32 28, i32 31, i32 30, i32 31, i32 30, i32 31, i32 31, i32 30, i32 31, i32 30], align 16
@.str = private unnamed_addr constant [3 x i8] c"%d\00", align 1
@.str.1 = private unnamed_addr constant [4 x i8] c"%d\0A\00", align 1

; Function Attrs: noinline nounwind uwtable
define dso_local i32 @day(i32 %0, i32 %1) #0 {
  %3 = alloca i32, align 4
  %4 = alloca i32, align 4
  %5 = alloca i32, align 4
  %6 = alloca i32, align 4
  %7 = alloca [11 x i32], align 16
  %8 = alloca i32, align 4
  store i32 %0, i32* %4, align 4
  store i32 %1, i32* %5, align 4
  store i32 0, i32* %6, align 4
  %9 = bitcast [11 x i32]* %7 to i8*
  call void @llvm.memcpy.p0i8.p0i8.i64(i8* align 16 %9, i8* align 16 bitcast ([11 x i32]* @__const.day.a to i8*), i64 44, i1 false)
  %10 = load i32, i32* %5, align 4
  %11 = icmp sgt i32 %10, 1
  br i1 %11, label %12, label %29

12:                                               ; preds = %2
  store i32 0, i32* %8, align 4
  br label %13

13:                                               ; preds = %25, %12
  %14 = load i32, i32* %8, align 4
  %15 = load i32, i32* %5, align 4
  %16 = sub nsw i32 %15, 1
  %17 = icmp slt i32 %14, %16
  br i1 %17, label %18, label %28

18:                                               ; preds = %13
  %19 = load i32, i32* %8, align 4
  %20 = sext i32 %19 to i64
  %21 = getelementptr inbounds [11 x i32], [11 x i32]* %7, i64 0, i64 %20
  %22 = load i32, i32* %21, align 4
  %23 = load i32, i32* %6, align 4
  %24 = add nsw i32 %23, %22
  store i32 %24, i32* %6, align 4
  br label %25

25:                                               ; preds = %18
  %26 = load i32, i32* %8, align 4
  %27 = add nsw i32 %26, 1
  store i32 %27, i32* %8, align 4
  br label %13

28:                                               ; preds = %13
  br label %29

29:                                               ; preds = %28, %2
  %30 = load i32, i32* %6, align 4
  %31 = add nsw i32 %30, 12
  store i32 %31, i32* %6, align 4
  %32 = load i32, i32* %4, align 4
  %33 = load i32, i32* %6, align 4
  %34 = srem i32 %33, 7
  %35 = add nsw i32 %32, %34
  %36 = srem i32 %35, 7
  %37 = icmp eq i32 %36, 5
  br i1 %37, label %38, label %39

38:                                               ; preds = %29
  store i32 1, i32* %3, align 4
  br label %40

39:                                               ; preds = %29
  store i32 0, i32* %3, align 4
  br label %40

40:                                               ; preds = %39, %38
  %41 = load i32, i32* %3, align 4
  ret i32 %41
}

; Function Attrs: argmemonly nounwind willreturn
declare void @llvm.memcpy.p0i8.p0i8.i64(i8* noalias nocapture writeonly, i8* noalias nocapture readonly, i64, i1 immarg) #1

; Function Attrs: noinline nounwind uwtable
define dso_local void @main() #0 {
  %1 = alloca i32, align 4
  %2 = alloca i32, align 4
  %3 = call i32 (i8*, ...) @__isoc99_scanf(i8* getelementptr inbounds ([3 x i8], [3 x i8]* @.str, i64 0, i64 0), i32* %1)
  store i32 1, i32* %2, align 4
  br label %4

4:                                                ; preds = %16, %0
  %5 = load i32, i32* %2, align 4
  %6 = icmp sle i32 %5, 12
  br i1 %6, label %7, label %19

7:                                                ; preds = %4
  %8 = load i32, i32* %1, align 4
  %9 = load i32, i32* %2, align 4
  %10 = call i32 @day(i32 %8, i32 %9)
  %11 = icmp ne i32 %10, 0
  br i1 %11, label %12, label %15

12:                                               ; preds = %7
  %13 = load i32, i32* %2, align 4
  %14 = call i32 (i8*, ...) @printf(i8* getelementptr inbounds ([4 x i8], [4 x i8]* @.str.1, i64 0, i64 0), i32 %13)
  br label %15

15:                                               ; preds = %12, %7
  br label %16

16:                                               ; preds = %15
  %17 = load i32, i32* %2, align 4
  %18 = add nsw i32 %17, 1
  store i32 %18, i32* %2, align 4
  br label %4

19:                                               ; preds = %4
  ret void
}

declare dso_local i32 @__isoc99_scanf(i8*, ...) #2

declare dso_local i32 @printf(i8*, ...) #2


!llvm.module.flags = !{!0}
!llvm.ident = !{!1}

!0 = !{i32 1, !"wchar_size", i32 4}
!1 = !{!"clang version 10.0.0-4ubuntu1 "}
